target datalayout = "e-m:e-p270:32:32-p271:32:32-p272:64:64-i64:64-i128:128-f80:128-n8:16:32:64-S128"
target triple = "x86_64-unknown-linux-gnu"

%"class.arrow::compute::SwissTable" = type { i32, i32, i32, %"class.std::shared_ptr", %"class.std::shared_ptr", i64, ptr }
%"class.std::shared_ptr" = type { %"class.std::__shared_ptr" }
%"class.std::__shared_ptr" = type { ptr, %"class.std::__shared_count" }
%"class.std::__shared_count" = type { ptr }
%"class.arrow::Buffer" = type { ptr, i8, i8, ptr, i64, i64, i8, %"class.std::shared_ptr", %"class.std::shared_ptr.2" }
%"class.std::shared_ptr.2" = type { %"class.std::__shared_ptr.3" }
%"class.std::__shared_ptr.3" = type { ptr, %"class.std::__shared_count" }

; Function Attrs: mustprogress nounwind uwtable
define linkonce_odr noundef ptr @_ZNKSt12__shared_ptrIN5arrow6BufferELN9__gnu_cxx12_Lock_policyE2EE3getEv(ptr noundef nonnull align 8 dereferenceable(16) %this) #1 comdat align 2 {
entry:
  %this.addr = alloca ptr, align 8
  store ptr %this, ptr %this.addr, align 8
  %this1 = load ptr, ptr %this.addr, align 8
  %_M_ptr = getelementptr inbounds %"class.std::__shared_ptr", ptr %this1, i32 0, i32 0
  %0 = load ptr, ptr %_M_ptr, align 8
  ret ptr %0
}

; Function Attrs: mustprogress nounwind uwtable
define internal noundef i32 @_ZN5arrow8bit_utilL17CountLeadingZerosEm(i64 noundef %value) #1 {
entry:
  %retval = alloca i32, align 4
  %value.addr = alloca i64, align 8
  store i64 %value, ptr %value.addr, align 8
  %0 = load i64, ptr %value.addr, align 8
  %cmp = icmp eq i64 %0, 0
  br i1 %cmp, label %if.then, label %if.end

if.then:                                          ; preds = %entry
  store i32 64, ptr %retval, align 4
  br label %return

if.end:                                           ; preds = %entry
  %1 = load i64, ptr %value.addr, align 8
  %2 = call i64 @llvm.ctlz.i64(i64 %1, i1 true)
  %cast = trunc i64 %2 to i32
  store i32 %cast, ptr %retval, align 4
  br label %return

return:                                           ; preds = %if.end, %if.then
  %3 = load i32, ptr %retval, align 4
  ret i32 %3
}

; Function Attrs: mustprogress nounwind uwtable
define linkonce_odr noundef ptr @_ZNKSt19__shared_ptr_accessIN5arrow6BufferELN9__gnu_cxx12_Lock_policyE2ELb0ELb0EE6_M_getEv(ptr noundef nonnull align 1 dereferenceable(1) %this) #1 comdat align 2 {
entry:
  %this.addr = alloca ptr, align 8
  store ptr %this, ptr %this.addr, align 8
  %this1 = load ptr, ptr %this.addr, align 8
  %call = call noundef ptr @_ZNKSt12__shared_ptrIN5arrow6BufferELN9__gnu_cxx12_Lock_policyE2EE3getEv(ptr noundef nonnull align 8 dereferenceable(16) %this1) #12
  ret ptr %call
}

; Function Attrs: mustprogress nounwind uwtable
define linkonce_odr void @_ZNK5arrow7compute10SwissTable12search_blockILb0EEEvmiiPiS3_(ptr noundef nonnull align 8 dereferenceable(64) %this, i64 noundef %block, i32 noundef %stamp, i32 noundef %start_slot, ptr noundef %out_slot, ptr noundef %out_match_found) #1 comdat align 2 {
entry:
  %this.addr = alloca ptr, align 8
  %block.addr = alloca i64, align 8
  %stamp.addr = alloca i32, align 4
  %start_slot.addr = alloca i32, align 4
  %out_slot.addr = alloca ptr, align 8
  %out_match_found.addr = alloca ptr, align 8
  %block_high_bits = alloca i64, align 8
  %stamp_pattern = alloca i64, align 8
  %block_xor_pattern = alloca i64, align 8
  %match_base = alloca i64, align 8
  %matches = alloca i64, align 8
  store ptr %this, ptr %this.addr, align 8
  store i64 %block, ptr %block.addr, align 8
  store i32 %stamp, ptr %stamp.addr, align 4
  store i32 %start_slot, ptr %start_slot.addr, align 4
  store ptr %out_slot, ptr %out_slot.addr, align 8
  store ptr %out_match_found, ptr %out_match_found.addr, align 8
  %0 = load i64, ptr %block.addr, align 8
  %and = and i64 %0, -9187201950435737472
  store i64 %and, ptr %block_high_bits, align 8
  %1 = load i32, ptr %stamp.addr, align 4
  %conv = sext i32 %1 to i64
  %2 = load i64, ptr %block_high_bits, align 8
  %xor = xor i64 %2, -9187201950435737472
  %shr = lshr i64 %xor, 7
  %mul = mul i64 %conv, %shr
  store i64 %mul, ptr %stamp_pattern, align 8
  %3 = load i64, ptr %block.addr, align 8
  %4 = load i64, ptr %stamp_pattern, align 8
  %xor2 = xor i64 %3, %4
  store i64 %xor2, ptr %block_xor_pattern, align 8
  %5 = load i64, ptr %block_xor_pattern, align 8
  %add = add i64 %5, 9187201950435737471
  store i64 %add, ptr %match_base, align 8
  %6 = load i64, ptr %match_base, align 8
  %not = xor i64 %6, -1
  store i64 %not, ptr %matches, align 8
  %7 = load i64, ptr %matches, align 8
  %and3 = and i64 %7, -9187201950435737472
  store i64 %and3, ptr %matches, align 8
  %8 = load i64, ptr %block_high_bits, align 8
  %not4 = xor i64 %8, -1
  %and5 = and i64 %not4, 128
  %9 = load i64, ptr %matches, align 8
  %or = or i64 %9, %and5
  store i64 %or, ptr %matches, align 8
  %10 = load i64, ptr %matches, align 8
  %cmp = icmp eq i64 %10, 0
  %cond = select i1 %cmp, i32 0, i32 1
  %11 = load ptr, ptr %out_match_found.addr, align 8
  store i32 %cond, ptr %11, align 4
  %12 = load i64, ptr %matches, align 8
  %13 = load i64, ptr %block_high_bits, align 8
  %or6 = or i64 %12, %13
  %call = call noundef i32 @_ZN5arrow8bit_utilL17CountLeadingZerosEm(i64 noundef %or6)
  %shr7 = ashr i32 %call, 3
  %14 = load ptr, ptr %out_slot.addr, align 8
  store i32 %shr7, ptr %14, align 4
  ret void
}

; Function Attrs: mustprogress nounwind uwtable
define linkonce_odr noundef ptr @_ZNK5arrow6Buffer4dataEv(ptr noundef nonnull align 8 dereferenceable(80) %this) #1 comdat align 2 {
entry:
  %this.addr = alloca ptr, align 8
  store ptr %this, ptr %this.addr, align 8
  %this1 = load ptr, ptr %this.addr, align 8
  %is_cpu_ = getelementptr inbounds %"class.arrow::Buffer", ptr %this1, i32 0, i32 2
  %0 = load i8, ptr %is_cpu_, align 1
  %tobool = trunc i8 %0 to i1
  %lnot = xor i1 %tobool, true
  %lnot2 = xor i1 %lnot, true
  br i1 %lnot2, label %cond.true, label %cond.false

cond.true:                                        ; preds = %entry
  %data_ = getelementptr inbounds %"class.arrow::Buffer", ptr %this1, i32 0, i32 3
  %1 = load ptr, ptr %data_, align 8
  br label %cond.end

cond.false:                                       ; preds = %entry
  br label %cond.end

cond.end:                                         ; preds = %cond.false, %cond.true
  %cond = phi ptr [ %1, %cond.true ], [ null, %cond.false ]
  ret ptr %cond
}

; Function Attrs: mustprogress nounwind uwtable
define linkonce_odr noundef ptr @_ZNKSt19__shared_ptr_accessIN5arrow6BufferELN9__gnu_cxx12_Lock_policyE2ELb0ELb0EEptEv(ptr noundef nonnull align 1 dereferenceable(1) %this) #1 comdat align 2 {
entry:
  %this.addr = alloca ptr, align 8
  store ptr %this, ptr %this.addr, align 8
  %this1 = load ptr, ptr %this.addr, align 8
  %call = call noundef ptr @_ZNKSt19__shared_ptr_accessIN5arrow6BufferELN9__gnu_cxx12_Lock_policyE2ELb0ELb0EE6_M_getEv(ptr noundef nonnull align 1 dereferenceable(1) %this1) #12
  ret ptr %call
}

; Function Attrs: mustprogress nounwind uwtable
define linkonce_odr noundef i32 @_ZN5arrow7compute10SwissTable32num_groupid_bits_from_log_blocksEi(i32 noundef %log_blocks) #1 comdat align 2 {
entry:
  %log_blocks.addr = alloca i32, align 4
  %required_bits = alloca i32, align 4
  store i32 %log_blocks, ptr %log_blocks.addr, align 4
  %0 = load i32, ptr %log_blocks.addr, align 4
  %add = add nsw i32 %0, 3
  store i32 %add, ptr %required_bits, align 4
  %1 = load i32, ptr %required_bits, align 4
  %cmp = icmp sle i32 %1, 8
  br i1 %cmp, label %cond.true, label %cond.false

cond.true:                                        ; preds = %entry
  br label %cond.end6

cond.false:                                       ; preds = %entry
  %2 = load i32, ptr %required_bits, align 4
  %cmp1 = icmp sle i32 %2, 16
  br i1 %cmp1, label %cond.true2, label %cond.false3

cond.true2:                                       ; preds = %cond.false
  br label %cond.end

cond.false3:                                      ; preds = %cond.false
  %3 = load i32, ptr %required_bits, align 4
  %cmp4 = icmp sle i32 %3, 32
  %cond = select i1 %cmp4, i32 32, i32 64
  br label %cond.end

cond.end:                                         ; preds = %cond.false3, %cond.true2
  %cond5 = phi i32 [ 16, %cond.true2 ], [ %cond, %cond.false3 ]
  br label %cond.end6

cond.end6:                                        ; preds = %cond.end, %cond.true
  %cond7 = phi i32 [ 8, %cond.true ], [ %cond5, %cond.end ]
  ret i32 %cond7
}

; Function Attrs: mustprogress uwtable
define void @_ZNK5arrow7compute10SwissTable16early_filter_impEiPKjPhS4_(ptr noundef nonnull align 8 dereferenceable(64) %this, i32 noundef %num_keys, ptr noundef %hashes, ptr noundef %out_match_bitvector, ptr noundef %out_local_slots) #0 align 2 {
entry:
  %this.addr = alloca ptr, align 8
  %num_keys.addr = alloca i32, align 4
  %hashes.addr = alloca ptr, align 8
  %out_match_bitvector.addr = alloca ptr, align 8
  %out_local_slots.addr = alloca ptr, align 8
  %stamp_mask = alloca i32, align 4
  %num_groupid_bits = alloca i32, align 4
  %i = alloca i32, align 4
  %hash = alloca i32, align 4
  %iblock = alloca i32, align 4
  %stamp = alloca i32, align 4
  %num_block_bytes = alloca i32, align 4
  %blockbase = alloca ptr, align 8
  %block = alloca i64, align 8
  %match_found = alloca i32, align 4
  %islot_in_block = alloca i32, align 4
  store ptr %this, ptr %this.addr, align 8
  store i32 %num_keys, ptr %num_keys.addr, align 4
  store ptr %hashes, ptr %hashes.addr, align 8
  store ptr %out_match_bitvector, ptr %out_match_bitvector.addr, align 8
  store ptr %out_local_slots, ptr %out_local_slots.addr, align 8
  %this1 = load ptr, ptr %this.addr, align 8
  %0 = load ptr, ptr %out_match_bitvector.addr, align 8
  %1 = load i32, ptr %num_keys.addr, align 4
  %add = add nsw i32 %1, 7
  %div = sdiv i32 %add, 8
  %conv = sext i32 %div to i64
  call void @llvm.memset.p0.i64(ptr align 1 %0, i8 0, i64 %conv, i1 false)
  store i32 127, ptr %stamp_mask, align 4
  %log_blocks_ = getelementptr inbounds %"class.arrow::compute::SwissTable", ptr %this1, i32 0, i32 1
  %2 = load i32, ptr %log_blocks_, align 4
  %call = call noundef i32 @_ZN5arrow7compute10SwissTable32num_groupid_bits_from_log_blocksEi(i32 noundef %2)
  store i32 %call, ptr %num_groupid_bits, align 4
  store i32 0, ptr %i, align 4
  br label %for.cond

for.cond:                                         ; preds = %for.inc, %entry
  %3 = load i32, ptr %i, align 4
  %4 = load i32, ptr %num_keys.addr, align 4
  %cmp = icmp slt i32 %3, %4
  br i1 %cmp, label %for.body, label %for.end

for.body:                                         ; preds = %for.cond
  %5 = load ptr, ptr %hashes.addr, align 8
  %6 = load i32, ptr %i, align 4
  %idxprom = sext i32 %6 to i64
  %arrayidx = getelementptr inbounds i32, ptr %5, i64 %idxprom
  %7 = load i32, ptr %arrayidx, align 4
  store i32 %7, ptr %hash, align 4
  %8 = load i32, ptr %hash, align 4
  %log_blocks_2 = getelementptr inbounds %"class.arrow::compute::SwissTable", ptr %this1, i32 0, i32 1
  %9 = load i32, ptr %log_blocks_2, align 4
  %sub = sub nsw i32 25, %9
  %shr = lshr i32 %8, %sub
  store i32 %shr, ptr %iblock, align 4
  %10 = load i32, ptr %iblock, align 4
  %11 = load i32, ptr %stamp_mask, align 4
  %and = and i32 %10, %11
  store i32 %and, ptr %stamp, align 4
  %12 = load i32, ptr %iblock, align 4
  %shr3 = lshr i32 %12, 7
  store i32 %shr3, ptr %iblock, align 4
  %13 = load i32, ptr %num_groupid_bits, align 4
  %add4 = add nsw i32 %13, 8
  store i32 %add4, ptr %num_block_bytes, align 4
  %blocks_ = getelementptr inbounds %"class.arrow::compute::SwissTable", ptr %this1, i32 0, i32 3
  %call5 = call noundef ptr @_ZNKSt19__shared_ptr_accessIN5arrow6BufferELN9__gnu_cxx12_Lock_policyE2ELb0ELb0EEptEv(ptr noundef nonnull align 1 dereferenceable(1) %blocks_) #12
  %call6 = call noundef ptr @_ZNK5arrow6Buffer4dataEv(ptr noundef nonnull align 8 dereferenceable(80) %call5)
  %14 = load i32, ptr %iblock, align 4
  %conv7 = zext i32 %14 to i64
  %15 = load i32, ptr %num_block_bytes, align 4
  %conv8 = zext i32 %15 to i64
  %mul = mul i64 %conv7, %conv8
  %add.ptr = getelementptr inbounds i8, ptr %call6, i64 %mul
  store ptr %add.ptr, ptr %blockbase, align 8
  br label %while.cond

while.cond:                                       ; preds = %while.body, %for.body
  br i1 false, label %while.body, label %while.end

while.body:                                       ; preds = %while.cond
  br label %while.cond, !llvm.loop !52

while.end:                                        ; preds = %while.cond
  br label %while.cond11

while.cond11:                                     ; preds = %while.body12, %while.end
  br i1 false, label %while.body12, label %while.end13

while.body12:                                     ; preds = %while.cond11
  br label %while.cond11, !llvm.loop !53

while.end13:                                      ; preds = %while.cond11
  %16 = load ptr, ptr %blockbase, align 8
  %17 = load i64, ptr %16, align 8
  store i64 %17, ptr %block, align 8
  %18 = load i64, ptr %block, align 8
  %19 = load i32, ptr %stamp, align 4
  call void @_ZNK5arrow7compute10SwissTable12search_blockILb0EEEvmiiPiS3_(ptr noundef nonnull align 8 dereferenceable(64) %this1, i64 noundef %18, i32 noundef %19, i32 noundef 0, ptr noundef %islot_in_block, ptr noundef %match_found)
  %20 = load i32, ptr %match_found, align 4
  %21 = load i32, ptr %i, align 4
  %and14 = and i32 %21, 7
  %shl = shl i32 %20, %and14
  %22 = load ptr, ptr %out_match_bitvector.addr, align 8
  %23 = load i32, ptr %i, align 4
  %div15 = sdiv i32 %23, 8
  %idxprom16 = sext i32 %div15 to i64
  %arrayidx17 = getelementptr inbounds i8, ptr %22, i64 %idxprom16
  %24 = load i8, ptr %arrayidx17, align 1
  %conv18 = zext i8 %24 to i32
  %or = or i32 %conv18, %shl
  %conv19 = trunc i32 %or to i8
  store i8 %conv19, ptr %arrayidx17, align 1
  %25 = load i32, ptr %islot_in_block, align 4
  %conv20 = trunc i32 %25 to i8
  %26 = load ptr, ptr %out_local_slots.addr, align 8
  %27 = load i32, ptr %i, align 4
  %idxprom21 = sext i32 %27 to i64
  %arrayidx22 = getelementptr inbounds i8, ptr %26, i64 %idxprom21
  store i8 %conv20, ptr %arrayidx22, align 1
  br label %for.inc

for.inc:                                          ; preds = %while.end13
  %28 = load i32, ptr %i, align 4
  %inc = add nsw i32 %28, 1
  store i32 %inc, ptr %i, align 4
  br label %for.cond, !llvm.loop !54

for.end:                                          ; preds = %for.cond
  ret void
}