; Function Attrs: mustprogress nofree norecurse nosync nounwind memory(read, argmem: readwrite, inaccessiblemem: none) uwtable
define void @_ZNK5arrow7compute10SwissTable16early_filter_impEiPKjPhS4_(ptr nocapture noundef nonnull readonly align 8 dereferenceable(64) %this, i32 noundef %num_keys, ptr nocapture noundef readonly %hashes, ptr nocapture noundef %out_match_bitvector, ptr nocapture noundef writeonly %out_local_slots) local_unnamed_addr #3 align 2 {
entry:
  %add = add nsw i32 %num_keys, 7
  %div = sdiv i32 %add, 8
  %conv = sext i32 %div to i64
  tail call void @llvm.memset.p0.i64(ptr align 1 %out_match_bitvector, i8 0, i64 %conv, i1 false)
  %log_blocks_ = getelementptr inbounds i8, ptr %this, i64 4
  %cmp14 = icmp sgt i32 %num_keys, 0
  br i1 %cmp14, label %for.body.lr.ph, label %for.end

for.body.lr.ph:                                   ; preds = %entry
  %0 = load i32, ptr %log_blocks_, align 4
  %cmp1.i = icmp ult i32 %0, 14
  %cmp4.i = icmp slt i32 %0, 30
  %1 = select i1 %cmp4.i, i64 40, i64 72
  %2 = select i1 %cmp1.i, i64 24, i64 %1
  %cmp.i = icmp slt i32 %0, 6
  %add4 = select i1 %cmp.i, i64 16, i64 %2
  %blocks_ = getelementptr inbounds i8, ptr %this, i64 16
  %wide.trip.count = zext nneg i32 %num_keys to i64
  br label %for.body

for.body:                                         ; preds = %for.body.lr.ph, %for.body
  %indvars.iv = phi i64 [ 0, %for.body.lr.ph ], [ %indvars.iv.next, %for.body ]
  %arrayidx = getelementptr inbounds i32, ptr %hashes, i64 %indvars.iv
  %3 = load i32, ptr %arrayidx, align 4
  %4 = load i32, ptr %log_blocks_, align 4
  %sub = sub nsw i32 25, %4
  %shr = lshr i32 %3, %sub
  %and = and i32 %shr, 127
  %shr3 = lshr i32 %shr, 7
  %5 = load ptr, ptr %blocks_, align 8
  %is_cpu_.i = getelementptr inbounds i8, ptr %5, i64 9
  %6 = load i8, ptr %is_cpu_.i, align 1
  %7 = and i8 %6, 1
  %tobool.not.i = icmp eq i8 %7, 0
  %data_.i = getelementptr inbounds i8, ptr %5, i64 16
  %8 = load ptr, ptr %data_.i, align 8
  %cond.i11 = select i1 %tobool.not.i, ptr null, ptr %8
  %conv7 = zext nneg i32 %shr3 to i64
  %mul = mul nuw nsw i64 %add4, %conv7
  %add.ptr = getelementptr inbounds i8, ptr %cond.i11, i64 %mul
  %9 = load i64, ptr %add.ptr, align 8
  %and.i = and i64 %9, -9187201950435737472
  %conv.i = zext nneg i32 %and to i64
  %xor.i = lshr exact i64 %and.i, 7
  %shr.i = xor i64 %xor.i, 72340172838076673
  %mul.i = mul nuw i64 %shr.i, %conv.i
  %xor2.i = xor i64 %mul.i, %9
  %not.i = sub i64 -9187201950435737472, %xor2.i
  %and3.i = and i64 %not.i, -9187201950435737472
  %not4.i = and i64 %9, 128
  %and5.i = xor i64 %not4.i, 128
  %or.i = or i64 %and3.i, %and5.i
  %cmp.i12 = icmp ne i64 %or.i, 0
  %cond.i13 = zext i1 %cmp.i12 to i8
  %or6.i = or i64 %or.i, %and.i
  %10 = tail call i64 @llvm.ctlz.i64(i64 %or6.i, i1 false), !range !23
  %cast.i.i = trunc i64 %10 to i8
  %shr7.i = lshr i8 %cast.i.i, 3
  %11 = trunc i64 %indvars.iv to i8
  %and14 = and i8 %11, 7
  %shl = shl nuw i8 %cond.i13, %and14
  %div1510 = lshr i64 %indvars.iv, 3
  %idxprom16 = and i64 %div1510, 536870911
  %arrayidx17 = getelementptr inbounds i8, ptr %out_match_bitvector, i64 %idxprom16
  %12 = load i8, ptr %arrayidx17, align 1
  %conv19 = or i8 %12, %shl
  store i8 %conv19, ptr %arrayidx17, align 1
  %arrayidx22 = getelementptr inbounds i8, ptr %out_local_slots, i64 %indvars.iv
  store i8 %shr7.i, ptr %arrayidx22, align 1
  %indvars.iv.next = add nuw nsw i64 %indvars.iv, 1
  %exitcond.not = icmp eq i64 %indvars.iv.next, %wide.trip.count
  br i1 %exitcond.not, label %for.end, label %for.body, !llvm.loop !24

for.end:                                          ; preds = %for.body, %entry
  ret void
}